; Function Attrs: mustprogress nofree norecurse nosync nounwind willreturn memory(argmem: read) uwtable
define noundef nonnull align 4 dereferenceable(16) ptr @_ZN15SortedTreeNodes14SliceTableData13cornerIndicesEPK7OctNodeI12TreeNodeDataE(ptr nocapture noundef nonnull readonly align 8 dereferenceable(72) %0, ptr nocapture noundef readonly %1) local_unnamed_addr #16 align 2 {
  %3 = load ptr, ptr %0, align 8
  %4 = getelementptr inbounds i8, ptr %1, i64 24
  %5 = load i32, ptr %4, align 8
  %6 = getelementptr inbounds i8, ptr %0, i64 36
  %7 = load i32, ptr %6, align 4
  %8 = sub nsw i32 %5, %7
  %9 = sext i32 %8 to i64
  %10 = getelementptr inbounds %"struct.SortedTreeNodes::_Indices", ptr %3, i64 %9
  ret ptr %10
}